target datalayout = "e-m:e-p270:32:32-p271:32:32-p272:64:64-i64:64-i128:128-f80:128-n8:16:32:64-S128"
target triple = "x86_64-unknown-linux-gnu"

%"class.hermes::Register" = type { i32 }
%"class.hermes::RegisterFile" = type { %"class.llvh::BitVector" }
%"class.llvh::BitVector" = type <{ %"class.llvh::MutableArrayRef", i32, [4 x i8] }>
%"class.llvh::MutableArrayRef" = type { %"class.llvh::ArrayRef" }
%"class.llvh::ArrayRef" = type { ptr, i64 }

; Function Attrs: mustprogress nounwind uwtable
define linkonce_odr hidden noundef ptr @_ZNK4llvh8ArrayRefImE4dataEv(ptr noundef nonnull align 8 dereferenceable(16) %this) #0 comdat align 2 {
entry:
  %this.addr = alloca ptr, align 8
  store ptr %this, ptr %this.addr, align 8
  %this1 = load ptr, ptr %this.addr, align 8
  %Data = getelementptr inbounds %"class.llvh::ArrayRef", ptr %this1, i32 0, i32 0
  %0 = load ptr, ptr %Data, align 8
  ret ptr %0
}

; Function Attrs: mustprogress nounwind uwtable
define linkonce_odr hidden noundef ptr @_ZNK4llvh15MutableArrayRefImE4dataEv(ptr noundef nonnull align 8 dereferenceable(16) %this) #0 comdat align 2 {
entry:
  %this.addr = alloca ptr, align 8
  store ptr %this, ptr %this.addr, align 8
  %this1 = load ptr, ptr %this.addr, align 8
  %call = call noundef ptr @_ZNK4llvh8ArrayRefImE4dataEv(ptr noundef nonnull align 8 dereferenceable(16) %this1)
  ret ptr %call
}

; Function Attrs: mustprogress nounwind uwtable
define linkonce_odr hidden noundef i64 @_ZN4llvh7alignToEmmm(i64 noundef %Value, i64 noundef %Align, i64 noundef %Skew) #0 comdat {
entry:
  %Value.addr = alloca i64, align 8
  %Align.addr = alloca i64, align 8
  %Skew.addr = alloca i64, align 8
  store i64 %Value, ptr %Value.addr, align 8
  store i64 %Align, ptr %Align.addr, align 8
  store i64 %Skew, ptr %Skew.addr, align 8
  %0 = load i64, ptr %Align.addr, align 8
  %1 = load i64, ptr %Skew.addr, align 8
  %rem = urem i64 %1, %0
  store i64 %rem, ptr %Skew.addr, align 8
  %2 = load i64, ptr %Value.addr, align 8
  %3 = load i64, ptr %Align.addr, align 8
  %add = add i64 %2, %3
  %sub = sub i64 %add, 1
  %4 = load i64, ptr %Skew.addr, align 8
  %sub1 = sub i64 %sub, %4
  %5 = load i64, ptr %Align.addr, align 8
  %div = udiv i64 %sub1, %5
  %6 = load i64, ptr %Align.addr, align 8
  %mul = mul i64 %div, %6
  %7 = load i64, ptr %Skew.addr, align 8
  %add2 = add i64 %mul, %7
  ret i64 %add2
}

; Function Attrs: mustprogress nounwind uwtable
define linkonce_odr hidden noundef nonnull align 8 dereferenceable(8) ptr @_ZNK4llvh15MutableArrayRefImEixEm(ptr noundef nonnull align 8 dereferenceable(16) %this, i64 noundef %Index) #0 comdat align 2 {
entry:
  %this.addr = alloca ptr, align 8
  %Index.addr = alloca i64, align 8
  store ptr %this, ptr %this.addr, align 8
  store i64 %Index, ptr %Index.addr, align 8
  %this1 = load ptr, ptr %this.addr, align 8
  %call = call noundef ptr @_ZNK4llvh15MutableArrayRefImE4dataEv(ptr noundef nonnull align 8 dereferenceable(16) %this1)
  %0 = load i64, ptr %Index.addr, align 8
  %arrayidx = getelementptr inbounds i64, ptr %call, i64 %0
  ret ptr %arrayidx
}

; Function Attrs: mustprogress nounwind uwtable
define linkonce_odr hidden noundef zeroext i1 @_ZNK4llvh9BitVectorixEj(ptr noundef nonnull align 8 dereferenceable(20) %this, i32 noundef %Idx) #0 comdat align 2 {
entry:
  %this.addr = alloca ptr, align 8
  %Idx.addr = alloca i32, align 4
  %Mask = alloca i64, align 8
  store ptr %this, ptr %this.addr, align 8
  store i32 %Idx, ptr %Idx.addr, align 4
  %this1 = load ptr, ptr %this.addr, align 8
  %0 = load i32, ptr %Idx.addr, align 4
  %rem = urem i32 %0, 64
  %sh_prom = zext i32 %rem to i64
  %shl = shl i64 1, %sh_prom
  store i64 %shl, ptr %Mask, align 8
  %Bits = getelementptr inbounds %"class.llvh::BitVector", ptr %this1, i32 0, i32 0
  %1 = load i32, ptr %Idx.addr, align 4
  %div = udiv i32 %1, 64
  %conv = zext i32 %div to i64
  %call = call noundef nonnull align 8 dereferenceable(8) ptr @_ZNK4llvh15MutableArrayRefImEixEm(ptr noundef nonnull align 8 dereferenceable(16) %Bits, i64 noundef %conv)
  %2 = load i64, ptr %call, align 8
  %3 = load i64, ptr %Mask, align 8
  %and = and i64 %2, %3
  %cmp = icmp ne i64 %and, 0
  ret i1 %cmp
}

; Function Attrs: mustprogress nounwind uwtable
define linkonce_odr hidden void @_ZN6hermes8RegisterC2Ej(ptr noundef nonnull align 4 dereferenceable(4) %this, i32 noundef %val) unnamed_addr #0 comdat align 2 {
entry:
  %this.addr = alloca ptr, align 8
  %val.addr = alloca i32, align 4
  store ptr %this, ptr %this.addr, align 8
  store i32 %val, ptr %val.addr, align 4
  %this1 = load ptr, ptr %this.addr, align 8
  %value = getelementptr inbounds %"class.hermes::Register", ptr %this1, i32 0, i32 0
  %0 = load i32, ptr %val.addr, align 4
  store i32 %0, ptr %value, align 4
  ret void
}

; Function Attrs: mustprogress nounwind uwtable
define linkonce_odr hidden noundef nonnull align 8 dereferenceable(20) ptr @_ZN4llvh9BitVector5resetEjj(ptr noundef nonnull align 8 dereferenceable(20) %this, i32 noundef %I, i32 noundef %E) #0 comdat align 2 {
entry:
  %retval = alloca ptr, align 8
  %this.addr = alloca ptr, align 8
  %I.addr = alloca i32, align 4
  %E.addr = alloca i32, align 4
  %EMask = alloca i64, align 8
  %IMask = alloca i64, align 8
  %Mask = alloca i64, align 8
  %PrefixMask = alloca i64, align 8
  %PostfixMask = alloca i64, align 8
  store ptr %this, ptr %this.addr, align 8
  store i32 %I, ptr %I.addr, align 4
  store i32 %E, ptr %E.addr, align 4
  %this1 = load ptr, ptr %this.addr, align 8
  %0 = load i32, ptr %I.addr, align 4
  %1 = load i32, ptr %E.addr, align 4
  %cmp = icmp eq i32 %0, %1
  br i1 %cmp, label %if.then, label %if.end

if.then:                                          ; preds = %entry
  store ptr %this1, ptr %retval, align 8
  br label %return

if.end:                                           ; preds = %entry
  %2 = load i32, ptr %I.addr, align 4
  %div = udiv i32 %2, 64
  %3 = load i32, ptr %E.addr, align 4
  %div2 = udiv i32 %3, 64
  %cmp3 = icmp eq i32 %div, %div2
  br i1 %cmp3, label %if.then4, label %if.end9

if.then4:                                         ; preds = %if.end
  %4 = load i32, ptr %E.addr, align 4
  %rem = urem i32 %4, 64
  %sh_prom = zext i32 %rem to i64
  %shl = shl i64 1, %sh_prom
  store i64 %shl, ptr %EMask, align 8
  %5 = load i32, ptr %I.addr, align 4
  %rem5 = urem i32 %5, 64
  %sh_prom6 = zext i32 %rem5 to i64
  %shl7 = shl i64 1, %sh_prom6
  store i64 %shl7, ptr %IMask, align 8
  %6 = load i64, ptr %EMask, align 8
  %7 = load i64, ptr %IMask, align 8
  %sub = sub i64 %6, %7
  store i64 %sub, ptr %Mask, align 8
  %8 = load i64, ptr %Mask, align 8
  %not = xor i64 %8, -1
  %Bits = getelementptr inbounds %"class.llvh::BitVector", ptr %this1, i32 0, i32 0
  %9 = load i32, ptr %I.addr, align 4
  %div8 = udiv i32 %9, 64
  %conv = zext i32 %div8 to i64
  %call = call noundef nonnull align 8 dereferenceable(8) ptr @_ZNK4llvh15MutableArrayRefImEixEm(ptr noundef nonnull align 8 dereferenceable(16) %Bits, i64 noundef %conv)
  %10 = load i64, ptr %call, align 8
  %and = and i64 %10, %not
  store i64 %and, ptr %call, align 8
  store ptr %this1, ptr %retval, align 8
  br label %return

if.end9:                                          ; preds = %if.end
  %11 = load i32, ptr %I.addr, align 4
  %rem10 = urem i32 %11, 64
  %sh_prom11 = zext i32 %rem10 to i64
  %shl12 = shl i64 -1, %sh_prom11
  store i64 %shl12, ptr %PrefixMask, align 8
  %12 = load i64, ptr %PrefixMask, align 8
  %not13 = xor i64 %12, -1
  %Bits14 = getelementptr inbounds %"class.llvh::BitVector", ptr %this1, i32 0, i32 0
  %13 = load i32, ptr %I.addr, align 4
  %div15 = udiv i32 %13, 64
  %conv16 = zext i32 %div15 to i64
  %call17 = call noundef nonnull align 8 dereferenceable(8) ptr @_ZNK4llvh15MutableArrayRefImEixEm(ptr noundef nonnull align 8 dereferenceable(16) %Bits14, i64 noundef %conv16)
  %14 = load i64, ptr %call17, align 8
  %and18 = and i64 %14, %not13
  store i64 %and18, ptr %call17, align 8
  %15 = load i32, ptr %I.addr, align 4
  %conv19 = zext i32 %15 to i64
  %call20 = call noundef i64 @_ZN4llvh7alignToEmmm(i64 noundef %conv19, i64 noundef 64, i64 noundef 0)
  %conv21 = trunc i64 %call20 to i32
  store i32 %conv21, ptr %I.addr, align 4
  br label %for.cond

for.cond:                                         ; preds = %for.inc, %if.end9
  %16 = load i32, ptr %I.addr, align 4
  %add = add i32 %16, 64
  %17 = load i32, ptr %E.addr, align 4
  %cmp22 = icmp ule i32 %add, %17
  br i1 %cmp22, label %for.body, label %for.end

for.body:                                         ; preds = %for.cond
  %Bits23 = getelementptr inbounds %"class.llvh::BitVector", ptr %this1, i32 0, i32 0
  %18 = load i32, ptr %I.addr, align 4
  %div24 = udiv i32 %18, 64
  %conv25 = zext i32 %div24 to i64
  %call26 = call noundef nonnull align 8 dereferenceable(8) ptr @_ZNK4llvh15MutableArrayRefImEixEm(ptr noundef nonnull align 8 dereferenceable(16) %Bits23, i64 noundef %conv25)
  store i64 0, ptr %call26, align 8
  br label %for.inc

for.inc:                                          ; preds = %for.body
  %19 = load i32, ptr %I.addr, align 4
  %add27 = add i32 %19, 64
  store i32 %add27, ptr %I.addr, align 4
  br label %for.cond, !llvm.loop !7

for.end:                                          ; preds = %for.cond
  %20 = load i32, ptr %E.addr, align 4
  %rem28 = urem i32 %20, 64
  %sh_prom29 = zext i32 %rem28 to i64
  %shl30 = shl i64 1, %sh_prom29
  %sub31 = sub i64 %shl30, 1
  store i64 %sub31, ptr %PostfixMask, align 8
  %21 = load i32, ptr %I.addr, align 4
  %22 = load i32, ptr %E.addr, align 4
  %cmp32 = icmp ult i32 %21, %22
  br i1 %cmp32, label %if.then33, label %if.end40

if.then33:                                        ; preds = %for.end
  %23 = load i64, ptr %PostfixMask, align 8
  %not34 = xor i64 %23, -1
  %Bits35 = getelementptr inbounds %"class.llvh::BitVector", ptr %this1, i32 0, i32 0
  %24 = load i32, ptr %I.addr, align 4
  %div36 = udiv i32 %24, 64
  %conv37 = zext i32 %div36 to i64
  %call38 = call noundef nonnull align 8 dereferenceable(8) ptr @_ZNK4llvh15MutableArrayRefImEixEm(ptr noundef nonnull align 8 dereferenceable(16) %Bits35, i64 noundef %conv37)
  %25 = load i64, ptr %call38, align 8
  %and39 = and i64 %25, %not34
  store i64 %and39, ptr %call38, align 8
  br label %if.end40

if.end40:                                         ; preds = %if.then33, %for.end
  store ptr %this1, ptr %retval, align 8
  br label %return

return:                                           ; preds = %if.end40, %if.then4, %if.then
  %26 = load ptr, ptr %retval, align 8
  ret ptr %26
}

; Function Attrs: mustprogress nounwind uwtable
define linkonce_odr noundef nonnull align 4 dereferenceable(4) ptr @_ZSt3maxIjERKT_S2_S2_(ptr noundef nonnull align 4 dereferenceable(4) %__a, ptr noundef nonnull align 4 dereferenceable(4) %__b) #0 comdat {
entry:
  %retval = alloca ptr, align 8
  %__a.addr = alloca ptr, align 8
  %__b.addr = alloca ptr, align 8
  store ptr %__a, ptr %__a.addr, align 8
  store ptr %__b, ptr %__b.addr, align 8
  %0 = load ptr, ptr %__a.addr, align 8
  %1 = load i32, ptr %0, align 4
  %2 = load ptr, ptr %__b.addr, align 8
  %3 = load i32, ptr %2, align 4
  %cmp = icmp ult i32 %1, %3
  br i1 %cmp, label %if.then, label %if.end

if.then:                                          ; preds = %entry
  %4 = load ptr, ptr %__b.addr, align 8
  store ptr %4, ptr %retval, align 8
  br label %return

if.end:                                           ; preds = %entry
  %5 = load ptr, ptr %__a.addr, align 8
  store ptr %5, ptr %retval, align 8
  br label %return

return:                                           ; preds = %if.end, %if.then
  %6 = load ptr, ptr %retval, align 8
  ret ptr %6
}

; Function Attrs: mustprogress nounwind uwtable
define linkonce_odr hidden noundef zeroext i1 @_ZNK4llvh9BitVector4testEj(ptr noundef nonnull align 8 dereferenceable(20) %this, i32 noundef %Idx) #0 comdat align 2 {
entry:
  %this.addr = alloca ptr, align 8
  %Idx.addr = alloca i32, align 4
  store ptr %this, ptr %this.addr, align 8
  store i32 %Idx, ptr %Idx.addr, align 4
  %this1 = load ptr, ptr %this.addr, align 8
  %0 = load i32, ptr %Idx.addr, align 4
  %call = call noundef zeroext i1 @_ZNK4llvh9BitVectorixEj(ptr noundef nonnull align 8 dereferenceable(20) %this1, i32 noundef %0)
  ret i1 %call
}

; Function Attrs: mustprogress nounwind uwtable
define linkonce_odr hidden noundef i32 @_ZNK4llvh9BitVector4sizeEv(ptr noundef nonnull align 8 dereferenceable(20) %this) #0 comdat align 2 {
entry:
  %this.addr = alloca ptr, align 8
  store ptr %this, ptr %this.addr, align 8
  %this1 = load ptr, ptr %this.addr, align 8
  %Size = getelementptr inbounds %"class.llvh::BitVector", ptr %this1, i32 0, i32 1
  %0 = load i32, ptr %Size, align 8
  ret i32 %0
}

; Function Attrs: mustprogress nounwind uwtable
define hidden i32 @_ZN6hermes12RegisterFile23tailAllocateConsecutiveEj(ptr noundef nonnull align 8 dereferenceable(24) %this, i32 noundef %n) #0 align 2 {
entry:
  %retval = alloca %"class.hermes::Register", align 4
  %this.addr = alloca ptr, align 8
  %n.addr = alloca i32, align 4
  %lastUsed = alloca i32, align 4
  %firstClear = alloca i32, align 4
  %ref.tmp = alloca i32, align 4
  %ref.tmp7 = alloca i32, align 4
  store ptr %this, ptr %this.addr, align 8
  store i32 %n, ptr %n.addr, align 4
  %this1 = load ptr, ptr %this.addr, align 8
  %registers = getelementptr inbounds %"class.hermes::RegisterFile", ptr %this1, i32 0, i32 0
  %call = call noundef i32 @_ZNK4llvh9BitVector4sizeEv(ptr noundef nonnull align 8 dereferenceable(20) %registers)
  %sub = sub i32 %call, 1
  store i32 %sub, ptr %lastUsed, align 4
  br label %while.cond

while.cond:                                       ; preds = %if.end, %entry
  %0 = load i32, ptr %lastUsed, align 4
  %cmp = icmp sge i32 %0, 0
  br i1 %cmp, label %while.body, label %while.end

while.body:                                       ; preds = %while.cond
  %registers2 = getelementptr inbounds %"class.hermes::RegisterFile", ptr %this1, i32 0, i32 0
  %1 = load i32, ptr %lastUsed, align 4
  %call3 = call noundef zeroext i1 @_ZNK4llvh9BitVector4testEj(ptr noundef nonnull align 8 dereferenceable(20) %registers2, i32 noundef %1)
  br i1 %call3, label %if.end, label %if.then

if.then:                                          ; preds = %while.body
  br label %while.end

if.end:                                           ; preds = %while.body
  %2 = load i32, ptr %lastUsed, align 4
  %dec = add nsw i32 %2, -1
  store i32 %dec, ptr %lastUsed, align 4
  br label %while.cond, !llvm.loop !6

while.end:                                        ; preds = %if.then, %while.cond
  %3 = load i32, ptr %lastUsed, align 4
  %add = add nsw i32 %3, 1
  store i32 %add, ptr %firstClear, align 4
  br label %do.body

do.body:                                          ; preds = %while.end
  br label %do.end

do.end:                                           ; preds = %do.body
  %registers4 = getelementptr inbounds %"class.hermes::RegisterFile", ptr %this1, i32 0, i32 0
  %registers5 = getelementptr inbounds %"class.hermes::RegisterFile", ptr %this1, i32 0, i32 0
  %call6 = call noundef i32 @_ZNK4llvh9BitVector4sizeEv(ptr noundef nonnull align 8 dereferenceable(20) %registers5)
  store i32 %call6, ptr %ref.tmp, align 4
  %4 = load i32, ptr %firstClear, align 4
  %5 = load i32, ptr %n.addr, align 4
  %add8 = add i32 %4, %5
  store i32 %add8, ptr %ref.tmp7, align 4
  %call9 = call noundef nonnull align 4 dereferenceable(4) ptr @_ZSt3maxIjERKT_S2_S2_(ptr noundef nonnull align 4 dereferenceable(4) %ref.tmp, ptr noundef nonnull align 4 dereferenceable(4) %ref.tmp7)
  %6 = load i32, ptr %call9, align 4
  call void @_ZN4llvh9BitVector6resizeEjb(ptr noundef nonnull align 8 dereferenceable(20) %registers4, i32 noundef %6, i1 noundef zeroext true)
  %registers10 = getelementptr inbounds %"class.hermes::RegisterFile", ptr %this1, i32 0, i32 0
  %7 = load i32, ptr %firstClear, align 4
  %8 = load i32, ptr %firstClear, align 4
  %9 = load i32, ptr %n.addr, align 4
  %add11 = add i32 %8, %9
  %call12 = call noundef nonnull align 8 dereferenceable(20) ptr @_ZN4llvh9BitVector5resetEjj(ptr noundef nonnull align 8 dereferenceable(20) %registers10, i32 noundef %7, i32 noundef %add11)
  br label %do.body13

do.body13:                                        ; preds = %do.end
  br label %do.end14

do.end14:                                         ; preds = %do.body13
  %10 = load i32, ptr %firstClear, align 4
  call void @_ZN6hermes8RegisterC2Ej(ptr noundef nonnull align 4 dereferenceable(4) %retval, i32 noundef %10)
  %coerce.dive = getelementptr inbounds %"class.hermes::Register", ptr %retval, i32 0, i32 0
  %11 = load i32, ptr %coerce.dive, align 4
  ret i32 %11
}