; Function Attrs: mustprogress nounwind uwtable
define hidden i32 @_ZN6hermes12RegisterFile23tailAllocateConsecutiveEj(ptr noundef nonnull align 8 dereferenceable(24) %this, i32 noundef %n) local_unnamed_addr #0 align 2 {
entry:
  %Size.i = getelementptr inbounds i8, ptr %this, i64 16
  %0 = load i32, ptr %Size.i, align 8
  %1 = load ptr, ptr %this, align 8
  %2 = add i32 %0, -1
  %smin = tail call i32 @llvm.smin.i32(i32 %2, i32 -1)
  %3 = add nsw i32 %smin, 1
  br label %while.cond

while.cond:                                       ; preds = %while.body, %entry
  %lastUsed.0.in = phi i32 [ %0, %entry ], [ %lastUsed.0, %while.body ]
  %lastUsed.0 = add i32 %lastUsed.0.in, -1
  %cmp = icmp sgt i32 %lastUsed.0, -1
  br i1 %cmp, label %while.body, label %while.end

while.body:                                       ; preds = %while.cond
  %rem.i.i = and i32 %lastUsed.0, 63
  %sh_prom.i.i = zext nneg i32 %rem.i.i to i64
  %shl.i.i = shl nuw i64 1, %sh_prom.i.i
  %div2.i.i = lshr i32 %lastUsed.0, 6
  %conv.i.i = zext nneg i32 %div2.i.i to i64
  %arrayidx.i.i.i = getelementptr inbounds i64, ptr %1, i64 %conv.i.i
  %4 = load i64, ptr %arrayidx.i.i.i, align 8
  %and.i.i = and i64 %4, %shl.i.i
  %cmp.i.i.not = icmp eq i64 %and.i.i, 0
  br i1 %cmp.i.i.not, label %while.end, label %while.cond, !llvm.loop !12

while.end:                                        ; preds = %while.body, %while.cond
  %lastUsed.0.in.lcssa = phi i32 [ %lastUsed.0.in, %while.body ], [ %3, %while.cond ]
  %add8 = add i32 %lastUsed.0.in.lcssa, %n
  %.sroa.speculated = tail call i32 @llvm.umax.i32(i32 %0, i32 %add8)
  tail call void @_ZN4llvh9BitVector6resizeEjb(ptr noundef nonnull align 8 dereferenceable(20) %this, i32 noundef %.sroa.speculated, i1 noundef zeroext true)
  %cmp.i9 = icmp eq i32 %n, 0
  br i1 %cmp.i9, label %_ZN4llvh9BitVector5resetEjj.exit, label %if.end.i

if.end.i:                                         ; preds = %while.end
  %div17.i = lshr i32 %lastUsed.0.in.lcssa, 6
  %div218.i = lshr i32 %add8, 6
  %cmp3.i = icmp eq i32 %div17.i, %div218.i
  br i1 %cmp3.i, label %if.then4.i, label %if.end9.i

if.then4.i:                                       ; preds = %if.end.i
  %rem.i = and i32 %add8, 63
  %sh_prom.i = zext nneg i32 %rem.i to i64
  %shl.i = shl nuw i64 1, %sh_prom.i
  %rem5.i = and i32 %lastUsed.0.in.lcssa, 63
  %sh_prom6.i = zext nneg i32 %rem5.i to i64
  %shl7.neg.i = shl nsw i64 -1, %sh_prom6.i
  %sub.i = add i64 %shl.i, %shl7.neg.i
  %not.i = xor i64 %sub.i, -1
  br label %return.sink.split.i

if.end9.i:                                        ; preds = %if.end.i
  %rem10.i = and i32 %lastUsed.0.in.lcssa, 63
  %sh_prom11.i = zext nneg i32 %rem10.i to i64
  %shl12.i = shl nsw i64 -1, %sh_prom11.i
  %not13.i = xor i64 %shl12.i, -1
  %conv16.i = zext nneg i32 %div17.i to i64
  %5 = load ptr, ptr %this, align 8
  %arrayidx.i21.i = getelementptr inbounds i64, ptr %5, i64 %conv16.i
  %6 = load i64, ptr %arrayidx.i21.i, align 8
  %and18.i = and i64 %6, %not13.i
  store i64 %and18.i, ptr %arrayidx.i21.i, align 8
  %sub1.i.i = add i32 %lastUsed.0.in.lcssa, 63
  %add2.i.i = and i32 %sub1.i.i, -64
  %add24.i = add i32 %add2.i.i, 64
  %cmp22.not25.i = icmp ugt i32 %add24.i, %add8
  br i1 %cmp22.not25.i, label %for.end.i, label %for.body.i

for.body.i:                                       ; preds = %if.end9.i, %for.body.i
  %add27.i = phi i32 [ %add.i, %for.body.i ], [ %add24.i, %if.end9.i ]
  %I.addr.026.i = phi i32 [ %add27.i, %for.body.i ], [ %add2.i.i, %if.end9.i ]
  %div2420.i = lshr exact i32 %I.addr.026.i, 6
  %conv25.i = zext nneg i32 %div2420.i to i64
  %7 = load ptr, ptr %this, align 8
  %arrayidx.i22.i = getelementptr inbounds i64, ptr %7, i64 %conv25.i
  store i64 0, ptr %arrayidx.i22.i, align 8
  %add.i = add i32 %add27.i, 64
  %cmp22.not.i = icmp ugt i32 %add.i, %add8
  br i1 %cmp22.not.i, label %for.end.i, label %for.body.i, !llvm.loop !13

for.end.i:                                        ; preds = %for.body.i, %if.end9.i
  %I.addr.0.lcssa.i = phi i32 [ %add2.i.i, %if.end9.i ], [ %add27.i, %for.body.i ]
  %cmp32.i = icmp ult i32 %I.addr.0.lcssa.i, %add8
  br i1 %cmp32.i, label %if.then33.i, label %_ZN4llvh9BitVector5resetEjj.exit

if.then33.i:                                      ; preds = %for.end.i
  %rem28.i = and i32 %add8, 63
  %sh_prom29.i = zext nneg i32 %rem28.i to i64
  %notmask.i = shl nsw i64 -1, %sh_prom29.i
  %div3619.i = lshr exact i32 %I.addr.0.lcssa.i, 6
  br label %return.sink.split.i

return.sink.split.i:                              ; preds = %if.then33.i, %if.then4.i
  %div17.sink.i = phi i32 [ %div17.i, %if.then4.i ], [ %div3619.i, %if.then33.i ]
  %notmask.sink.i = phi i64 [ %not.i, %if.then4.i ], [ %notmask.i, %if.then33.i ]
  %conv.i = zext nneg i32 %div17.sink.i to i64
  %8 = load ptr, ptr %this, align 8
  %arrayidx.i.i = getelementptr inbounds i64, ptr %8, i64 %conv.i
  %9 = load i64, ptr %arrayidx.i.i, align 8
  %and39.i = and i64 %9, %notmask.sink.i
  store i64 %and39.i, ptr %arrayidx.i.i, align 8
  br label %_ZN4llvh9BitVector5resetEjj.exit

_ZN4llvh9BitVector5resetEjj.exit:                 ; preds = %while.end, %for.end.i, %return.sink.split.i
  ret i32 %lastUsed.0.in.lcssa
}